target datalayout = "e-m:e-p270:32:32-p271:32:32-p272:64:64-i64:64-i128:128-f80:128-n8:16:32:64-S128"
target triple = "x86_64-pc-linux-gnu"

; Function Attrs: mustprogress uwtable
define dso_local i32 @stbi_write_png_to_func(ptr noundef %0, ptr noundef %1, i32 noundef %2, i32 noundef %3, i32 noundef %4, ptr noundef %5, i32 noundef %6) #4 {
  %8 = alloca i32, align 4
  %9 = alloca ptr, align 8
  %10 = alloca ptr, align 8
  %11 = alloca i32, align 4
  %12 = alloca i32, align 4
  %13 = alloca i32, align 4
  %14 = alloca ptr, align 8
  %15 = alloca i32, align 4
  %16 = alloca i32, align 4
  %17 = alloca ptr, align 8
  store ptr %0, ptr %9, align 8
  store ptr %1, ptr %10, align 8
  store i32 %2, ptr %11, align 4
  store i32 %3, ptr %12, align 4
  store i32 %4, ptr %13, align 4
  store ptr %5, ptr %14, align 8
  store i32 %6, ptr %15, align 4
  %18 = load ptr, ptr %14, align 8
  %19 = load i32, ptr %15, align 4
  %20 = load i32, ptr %11, align 4
  %21 = load i32, ptr %12, align 4
  %22 = load i32, ptr %13, align 4
  %23 = call noundef ptr @_Z21stbi_write_png_to_memPhiiiiPi(ptr noundef %18, i32 noundef %19, i32 noundef %20, i32 noundef %21, i32 noundef %22, ptr noundef %16)
  store ptr %23, ptr %17, align 8
  %24 = load ptr, ptr %17, align 8
  %25 = icmp eq ptr %24, null
  br i1 %25, label %26, label %27

26:                                               ; preds = %7
  store i32 0, ptr %8, align 4
  br label %33

27:                                               ; preds = %7
  %28 = load ptr, ptr %9, align 8
  %29 = load ptr, ptr %10, align 8
  %30 = load ptr, ptr %17, align 8
  %31 = load i32, ptr %16, align 4
  call void %28(ptr noundef %29, ptr noundef %30, i32 noundef %31)
  %32 = load ptr, ptr %17, align 8
  call void @free(ptr noundef %32) #18
  store i32 1, ptr %8, align 4
  br label %33

33:                                               ; preds = %27, %26
  %34 = load i32, ptr %8, align 4
  ret i32 %34
}